; Function Attrs: inlinehint mustprogress nounwind uwtable
define internal fastcc void @"_ZZN4lean9time_taskC1ERKNSt7__cxx1112basic_stringIcSt11char_traitsIcESaIcEEERKNS_7optionsENS_4nameEEN3$_0D2Ev"(ptr %.8.val) unnamed_addr #6 align 2 personality ptr @__gxx_personality_v0 {
  %1 = ptrtoint ptr %.8.val to i64
  %2 = and i64 %1, 1
  %.not.i.i = icmp eq i64 %2, 0
  br i1 %.not.i.i, label %3, label %_ZN4lean10object_refD2Ev.exit

3:                                                ; preds = %0
  %4 = load i32, ptr %.8.val, align 4, !tbaa !61
  %5 = icmp sgt i32 %4, 1
  br i1 %5, label %6, label %8, !prof !64

6:                                                ; preds = %3
  %7 = add nsw i32 %4, -1
  store i32 %7, ptr %.8.val, align 4, !tbaa !61
  br label %_ZN4lean10object_refD2Ev.exit

8:                                                ; preds = %3
  %.not.i.i.i = icmp eq i32 %4, 0
  br i1 %.not.i.i.i, label %_ZN4lean10object_refD2Ev.exit, label %9

9:                                                ; preds = %8
  invoke void @lean_dec_ref_cold(ptr noundef nonnull %.8.val)
          to label %_ZN4lean10object_refD2Ev.exit unwind label %10

10:                                               ; preds = %9
  %11 = landingpad { ptr, i32 }
          catch ptr null
  %12 = extractvalue { ptr, i32 } %11, 0
  tail call void @__clang_call_terminate(ptr %12) #27
  unreachable

_ZN4lean10object_refD2Ev.exit:                    ; preds = %0, %6, %8, %9
  ret void
}